; Function Attrs: mustprogress nounwind uwtable
define internal noundef i32 @_ZN4node4quic12_GLOBAL__N_118NewSessionCallbackEP6ssl_stP14ssl_session_st(ptr noundef %ssl, ptr noundef %session) #4 {
entry:
  %call.i = tail call ptr @SSL_get_ex_data(ptr noundef %ssl, i32 noundef 0) #18
  %0 = ptrtoint ptr %call.i to i64
  %sub.i.i.i = add i64 %0, -8
  %1 = inttoptr i64 %sub.i.i.i to ptr
  %call1 = tail call noundef i32 @_ZN4node4quic10TLSContext12OnNewSessionEP14ssl_session_st(ptr noundef nonnull align 8 dereferenceable(352) %1, ptr noundef %session)
  ret i32 0
}